target datalayout = "e-m:e-p270:32:32-p271:32:32-p272:64:64-i64:64-i128:128-f80:128-n8:16:32:64-S128"
target triple = "x86_64-pc-linux-gnu"

%struct.formnode = type { i16, i16, i16, i32, i32, i32, i32, i16, i16, i16, i32, ptr, ptr, ptr, ptr, ptr, ptr, ptr, ptr, ptr, ptr, ptr }
%struct.fieldnode = type { i16, i16, i16, i16, i16, i32, i32, i32, i32, i16, i16, i16, i16, i32, i32, i32, i32, ptr, ptr, ptr, ptr, ptr, ptr, ptr, ptr }

; Function Attrs: nounwind uwtable
define internal void @Adjust_Cursor_Position(ptr noundef %0, ptr noundef %1) #0 {
  %3 = alloca ptr, align 8
  %4 = alloca ptr, align 8
  %5 = alloca ptr, align 8
  %6 = alloca i32, align 4
  store ptr %0, ptr %3, align 8, !tbaa !4
  store ptr %1, ptr %4, align 8, !tbaa !55
  call void @llvm.lifetime.start.p0(i64 8, ptr %5) #9
  call void @llvm.lifetime.start.p0(i64 4, ptr %6) #9
  %7 = load ptr, ptr %3, align 8, !tbaa !4
  %8 = getelementptr inbounds nuw %struct.formnode, ptr %7, i32 0, i32 15
  %9 = load ptr, ptr %8, align 8, !tbaa !16
  store ptr %9, ptr %5, align 8, !tbaa !17
  %10 = load ptr, ptr %4, align 8, !tbaa !55
  %11 = load ptr, ptr %5, align 8, !tbaa !17
  %12 = getelementptr inbounds nuw %struct.fieldnode, ptr %11, i32 0, i32 23
  %13 = load ptr, ptr %12, align 8, !tbaa !54
  %14 = ptrtoint ptr %10 to i64
  %15 = ptrtoint ptr %13 to i64
  %16 = sub i64 %14, %15
  %17 = trunc i64 %16 to i32
  store i32 %17, ptr %6, align 4, !tbaa !35
  %18 = load i32, ptr %6, align 4, !tbaa !35
  %19 = load ptr, ptr %5, align 8, !tbaa !17
  %20 = getelementptr inbounds nuw %struct.fieldnode, ptr %19, i32 0, i32 6
  %21 = load i32, ptr %20, align 8, !tbaa !29
  %22 = sdiv i32 %18, %21
  %23 = load ptr, ptr %3, align 8, !tbaa !4
  %24 = getelementptr inbounds nuw %struct.formnode, ptr %23, i32 0, i32 3
  store i32 %22, ptr %24, align 8, !tbaa !21
  %25 = load i32, ptr %6, align 4, !tbaa !35
  %26 = load ptr, ptr %5, align 8, !tbaa !17
  %27 = getelementptr inbounds nuw %struct.fieldnode, ptr %26, i32 0, i32 2
  %28 = load i16, ptr %27, align 4, !tbaa !30
  %29 = sext i16 %28 to i32
  %30 = load ptr, ptr %3, align 8, !tbaa !4
  %31 = getelementptr inbounds nuw %struct.formnode, ptr %30, i32 0, i32 3
  %32 = load i32, ptr %31, align 8, !tbaa !21
  %33 = mul nsw i32 %29, %32
  %34 = sub nsw i32 %25, %33
  %35 = load ptr, ptr %3, align 8, !tbaa !4
  %36 = getelementptr inbounds nuw %struct.formnode, ptr %35, i32 0, i32 4
  store i32 %34, ptr %36, align 4, !tbaa !22
  %37 = load ptr, ptr %5, align 8, !tbaa !17
  %38 = getelementptr inbounds nuw %struct.fieldnode, ptr %37, i32 0, i32 5
  %39 = load i32, ptr %38, align 4, !tbaa !27
  %40 = load ptr, ptr %3, align 8, !tbaa !4
  %41 = getelementptr inbounds nuw %struct.formnode, ptr %40, i32 0, i32 3
  %42 = load i32, ptr %41, align 8, !tbaa !21
  %43 = icmp slt i32 %39, %42
  br i1 %43, label %44, label %47

44:                                               ; preds = %2
  %45 = load ptr, ptr %3, align 8, !tbaa !4
  %46 = getelementptr inbounds nuw %struct.formnode, ptr %45, i32 0, i32 3
  store i32 0, ptr %46, align 8, !tbaa !21
  br label %47

47:                                               ; preds = %44, %2
  call void @llvm.lifetime.end.p0(i64 4, ptr %6) #9
  call void @llvm.lifetime.end.p0(i64 8, ptr %5) #9
  ret void
}

; Function Attrs: nounwind uwtable
define internal ptr @Get_Start_Of_Data(ptr noundef %0, i32 noundef %1) #0 {
  %3 = alloca ptr, align 8
  %4 = alloca i32, align 4
  %5 = alloca ptr, align 8
  %6 = alloca ptr, align 8
  store ptr %0, ptr %3, align 8, !tbaa !55
  store i32 %1, ptr %4, align 4, !tbaa !35
  call void @llvm.lifetime.start.p0(i64 8, ptr %5) #9
  %7 = load ptr, ptr %3, align 8, !tbaa !55
  store ptr %7, ptr %5, align 8, !tbaa !55
  call void @llvm.lifetime.start.p0(i64 8, ptr %6) #9
  %8 = load ptr, ptr %3, align 8, !tbaa !55
  %9 = load i32, ptr %4, align 4, !tbaa !35
  %10 = sext i32 %9 to i64
  %11 = getelementptr inbounds i8, ptr %8, i64 %10
  store ptr %11, ptr %6, align 8, !tbaa !55
  br label %12

12:                                               ; preds = %23, %2
  %13 = load ptr, ptr %5, align 8, !tbaa !55
  %14 = load ptr, ptr %6, align 8, !tbaa !55
  %15 = icmp ult ptr %13, %14
  br i1 %15, label %16, label %21

16:                                               ; preds = %12
  %17 = load ptr, ptr %5, align 8, !tbaa !55
  %18 = load i8, ptr %17, align 1, !tbaa !65
  %19 = sext i8 %18 to i32
  %20 = icmp eq i32 %19, 32
  br label %21

21:                                               ; preds = %16, %12
  %22 = phi i1 [ false, %12 ], [ %20, %16 ]
  br i1 %22, label %23, label %26

23:                                               ; preds = %21
  %24 = load ptr, ptr %5, align 8, !tbaa !55
  %25 = getelementptr inbounds nuw i8, ptr %24, i32 1
  store ptr %25, ptr %5, align 8, !tbaa !55
  br label %12, !llvm.loop !115

26:                                               ; preds = %21
  %27 = load ptr, ptr %5, align 8, !tbaa !55
  %28 = load ptr, ptr %6, align 8, !tbaa !55
  %29 = icmp eq ptr %27, %28
  br i1 %29, label %30, label %32

30:                                               ; preds = %26
  %31 = load ptr, ptr %3, align 8, !tbaa !55
  br label %34

32:                                               ; preds = %26
  %33 = load ptr, ptr %5, align 8, !tbaa !55
  br label %34

34:                                               ; preds = %32, %30
  %35 = phi ptr [ %31, %30 ], [ %33, %32 ]
  call void @llvm.lifetime.end.p0(i64 8, ptr %6) #9
  call void @llvm.lifetime.end.p0(i64 8, ptr %5) #9
  ret ptr %35
}

; Function Attrs: nounwind uwtable
define internal ptr @Get_First_Whitespace_Character(ptr noundef %0, i32 noundef %1) #0 {
  %3 = alloca ptr, align 8
  %4 = alloca i32, align 4
  %5 = alloca ptr, align 8
  %6 = alloca ptr, align 8
  store ptr %0, ptr %3, align 8, !tbaa !55
  store i32 %1, ptr %4, align 4, !tbaa !35
  call void @llvm.lifetime.start.p0(i64 8, ptr %5) #9
  %7 = load ptr, ptr %3, align 8, !tbaa !55
  store ptr %7, ptr %5, align 8, !tbaa !55
  call void @llvm.lifetime.start.p0(i64 8, ptr %6) #9
  %8 = load ptr, ptr %5, align 8, !tbaa !55
  %9 = load i32, ptr %4, align 4, !tbaa !35
  %10 = sext i32 %9 to i64
  %11 = getelementptr inbounds i8, ptr %8, i64 %10
  store ptr %11, ptr %6, align 8, !tbaa !55
  br label %12

12:                                               ; preds = %24, %2
  %13 = load ptr, ptr %5, align 8, !tbaa !55
  %14 = load ptr, ptr %6, align 8, !tbaa !55
  %15 = icmp ult ptr %13, %14
  br i1 %15, label %16, label %22

16:                                               ; preds = %12
  %17 = load ptr, ptr %5, align 8, !tbaa !55
  %18 = load i8, ptr %17, align 1, !tbaa !65
  %19 = sext i8 %18 to i32
  %20 = icmp eq i32 %19, 32
  %21 = xor i1 %20, true
  br label %22

22:                                               ; preds = %16, %12
  %23 = phi i1 [ false, %12 ], [ %21, %16 ]
  br i1 %23, label %24, label %27

24:                                               ; preds = %22
  %25 = load ptr, ptr %5, align 8, !tbaa !55
  %26 = getelementptr inbounds nuw i8, ptr %25, i32 1
  store ptr %26, ptr %5, align 8, !tbaa !55
  br label %12, !llvm.loop !129

27:                                               ; preds = %22
  %28 = load ptr, ptr %5, align 8, !tbaa !55
  %29 = load ptr, ptr %6, align 8, !tbaa !55
  %30 = icmp eq ptr %28, %29
  br i1 %30, label %31, label %33

31:                                               ; preds = %27
  %32 = load ptr, ptr %3, align 8, !tbaa !55
  br label %35

33:                                               ; preds = %27
  %34 = load ptr, ptr %5, align 8, !tbaa !55
  br label %35

35:                                               ; preds = %33, %31
  %36 = phi ptr [ %32, %31 ], [ %34, %33 ]
  call void @llvm.lifetime.end.p0(i64 8, ptr %6) #9
  call void @llvm.lifetime.end.p0(i64 8, ptr %5) #9
  ret ptr %36
}

; Function Attrs: nounwind uwtable
define internal i32 @IFN_Next_Word(ptr noundef %0) #0 {
  %2 = alloca ptr, align 8
  %3 = alloca ptr, align 8
  %4 = alloca ptr, align 8
  %5 = alloca ptr, align 8
  %6 = alloca ptr, align 8
  store ptr %0, ptr %2, align 8, !tbaa !4
  call void @llvm.lifetime.start.p0(i64 8, ptr %3) #9
  %7 = load ptr, ptr %2, align 8, !tbaa !4
  %8 = getelementptr inbounds nuw %struct.formnode, ptr %7, i32 0, i32 15
  %9 = load ptr, ptr %8, align 8, !tbaa !16
  store ptr %9, ptr %3, align 8, !tbaa !17
  call void @llvm.lifetime.start.p0(i64 8, ptr %4) #9
  %10 = load ptr, ptr %2, align 8, !tbaa !4
  %11 = getelementptr inbounds nuw %struct.formnode, ptr %10, i32 0, i32 15
  %12 = load ptr, ptr %11, align 8, !tbaa !16
  %13 = getelementptr inbounds nuw %struct.fieldnode, ptr %12, i32 0, i32 23
  %14 = load ptr, ptr %13, align 8, !tbaa !54
  %15 = load ptr, ptr %2, align 8, !tbaa !4
  %16 = getelementptr inbounds nuw %struct.formnode, ptr %15, i32 0, i32 15
  %17 = load ptr, ptr %16, align 8, !tbaa !16
  %18 = getelementptr inbounds nuw %struct.fieldnode, ptr %17, i32 0, i32 5
  %19 = load i32, ptr %18, align 4, !tbaa !27
  %20 = load ptr, ptr %2, align 8, !tbaa !4
  %21 = getelementptr inbounds nuw %struct.formnode, ptr %20, i32 0, i32 15
  %22 = load ptr, ptr %21, align 8, !tbaa !16
  %23 = getelementptr inbounds nuw %struct.fieldnode, ptr %22, i32 0, i32 6
  %24 = load i32, ptr %23, align 8, !tbaa !29
  %25 = mul nsw i32 %19, %24
  %26 = add nsw i32 1, %25
  %27 = mul nsw i32 0, %26
  %28 = sext i32 %27 to i64
  %29 = getelementptr inbounds i8, ptr %14, i64 %28
  %30 = load ptr, ptr %2, align 8, !tbaa !4
  %31 = getelementptr inbounds nuw %struct.formnode, ptr %30, i32 0, i32 3
  %32 = load i32, ptr %31, align 8, !tbaa !21
  %33 = load ptr, ptr %2, align 8, !tbaa !4
  %34 = getelementptr inbounds nuw %struct.formnode, ptr %33, i32 0, i32 15
  %35 = load ptr, ptr %34, align 8, !tbaa !16
  %36 = getelementptr inbounds nuw %struct.fieldnode, ptr %35, i32 0, i32 6
  %37 = load i32, ptr %36, align 8, !tbaa !29
  %38 = mul nsw i32 %32, %37
  %39 = sext i32 %38 to i64
  %40 = getelementptr inbounds i8, ptr %29, i64 %39
  %41 = load ptr, ptr %2, align 8, !tbaa !4
  %42 = getelementptr inbounds nuw %struct.formnode, ptr %41, i32 0, i32 4
  %43 = load i32, ptr %42, align 4, !tbaa !22
  %44 = sext i32 %43 to i64
  %45 = getelementptr inbounds i8, ptr %40, i64 %44
  store ptr %45, ptr %4, align 8, !tbaa !55
  call void @llvm.lifetime.start.p0(i64 8, ptr %5) #9
  call void @llvm.lifetime.start.p0(i64 8, ptr %6) #9
  %46 = load ptr, ptr %2, align 8, !tbaa !4
  call void @Synchronize_Buffer(ptr noundef %46)
  %47 = load ptr, ptr %4, align 8, !tbaa !55
  %48 = load ptr, ptr %3, align 8, !tbaa !17
  %49 = getelementptr inbounds nuw %struct.fieldnode, ptr %48, i32 0, i32 5
  %50 = load i32, ptr %49, align 4, !tbaa !27
  %51 = load ptr, ptr %3, align 8, !tbaa !17
  %52 = getelementptr inbounds nuw %struct.fieldnode, ptr %51, i32 0, i32 6
  %53 = load i32, ptr %52, align 8, !tbaa !29
  %54 = mul nsw i32 %50, %53
  %55 = load ptr, ptr %4, align 8, !tbaa !55
  %56 = load ptr, ptr %3, align 8, !tbaa !17
  %57 = getelementptr inbounds nuw %struct.fieldnode, ptr %56, i32 0, i32 23
  %58 = load ptr, ptr %57, align 8, !tbaa !54
  %59 = ptrtoint ptr %55 to i64
  %60 = ptrtoint ptr %58 to i64
  %61 = sub i64 %59, %60
  %62 = trunc i64 %61 to i32
  %63 = sub nsw i32 %54, %62
  %64 = call ptr @Get_First_Whitespace_Character(ptr noundef %47, i32 noundef %63)
  store ptr %64, ptr %5, align 8, !tbaa !55
  %65 = load ptr, ptr %5, align 8, !tbaa !55
  %66 = load ptr, ptr %3, align 8, !tbaa !17
  %67 = getelementptr inbounds nuw %struct.fieldnode, ptr %66, i32 0, i32 5
  %68 = load i32, ptr %67, align 4, !tbaa !27
  %69 = load ptr, ptr %3, align 8, !tbaa !17
  %70 = getelementptr inbounds nuw %struct.fieldnode, ptr %69, i32 0, i32 6
  %71 = load i32, ptr %70, align 8, !tbaa !29
  %72 = mul nsw i32 %68, %71
  %73 = load ptr, ptr %5, align 8, !tbaa !55
  %74 = load ptr, ptr %3, align 8, !tbaa !17
  %75 = getelementptr inbounds nuw %struct.fieldnode, ptr %74, i32 0, i32 23
  %76 = load ptr, ptr %75, align 8, !tbaa !54
  %77 = ptrtoint ptr %73 to i64
  %78 = ptrtoint ptr %76 to i64
  %79 = sub i64 %77, %78
  %80 = trunc i64 %79 to i32
  %81 = sub nsw i32 %72, %80
  %82 = call ptr @Get_Start_Of_Data(ptr noundef %65, i32 noundef %81)
  store ptr %82, ptr %6, align 8, !tbaa !55
  %83 = load ptr, ptr %2, align 8, !tbaa !4
  %84 = load ptr, ptr %6, align 8, !tbaa !55
  call void @Adjust_Cursor_Position(ptr noundef %83, ptr noundef %84)
  call void @llvm.lifetime.end.p0(i64 8, ptr %6) #9
  call void @llvm.lifetime.end.p0(i64 8, ptr %5) #9
  call void @llvm.lifetime.end.p0(i64 8, ptr %4) #9
  call void @llvm.lifetime.end.p0(i64 8, ptr %3) #9
  ret i32 0
}