; Function Attrs: nounwind uwtable
define internal noundef i32 @IFN_Next_Word(ptr noundef captures(none) %0) #0 {
  %2 = getelementptr inbounds nuw i8, ptr %0, i64 72
  %3 = load ptr, ptr %2, align 8, !tbaa !14
  %4 = getelementptr inbounds nuw i8, ptr %3, i64 104
  %5 = load ptr, ptr %4, align 8, !tbaa !52
  %6 = getelementptr inbounds nuw i8, ptr %3, i64 12
  %7 = getelementptr inbounds nuw i8, ptr %3, i64 16
  %8 = load i32, ptr %7, align 8, !tbaa !26
  %9 = getelementptr inbounds nuw i8, ptr %0, i64 8
  %10 = load i32, ptr %9, align 8, !tbaa !17
  %11 = mul nsw i32 %10, %8
  %12 = sext i32 %11 to i64
  %13 = getelementptr inbounds i8, ptr %5, i64 %12
  %14 = getelementptr inbounds nuw i8, ptr %0, i64 12
  %15 = load i32, ptr %14, align 4, !tbaa !18
  %16 = sext i32 %15 to i64
  %17 = getelementptr inbounds i8, ptr %13, i64 %16
  tail call fastcc void @Synchronize_Buffer(ptr noundef %0)
  %18 = load i32, ptr %6, align 4, !tbaa !24
  %19 = load i32, ptr %7, align 8, !tbaa !26
  %20 = mul nsw i32 %19, %18
  %21 = load ptr, ptr %4, align 8, !tbaa !52
  %22 = ptrtoint ptr %17 to i64
  %23 = ptrtoint ptr %21 to i64
  %.neg = sub i64 %23, %22
  %.neg20 = trunc i64 %.neg to i32
  %24 = add i32 %20, %.neg20
  %25 = sext i32 %24 to i64
  %26 = getelementptr inbounds i8, ptr %17, i64 %25
  %27 = icmp sgt i32 %24, 0
  br i1 %27, label %.lr.ph.i, label %Get_First_Whitespace_Character.exit

.lr.ph.i:                                         ; preds = %1, %29
  %.010.i = phi ptr [ %30, %29 ], [ %17, %1 ]
  %28 = load i8, ptr %.010.i, align 1, !tbaa !54
  %.not.i = icmp eq i8 %28, 32
  br i1 %.not.i, label %Get_First_Whitespace_Character.exit, label %29

29:                                               ; preds = %.lr.ph.i
  %30 = getelementptr inbounds nuw i8, ptr %.010.i, i64 1
  %31 = icmp ult ptr %30, %26
  br i1 %31, label %.lr.ph.i, label %Get_First_Whitespace_Character.exit, !llvm.loop !120

Get_First_Whitespace_Character.exit:              ; preds = %.lr.ph.i, %29, %1
  %.0.lcssa.i = phi ptr [ %17, %1 ], [ %.010.i, %.lr.ph.i ], [ %30, %29 ]
  %32 = icmp eq ptr %.0.lcssa.i, %26
  %33 = select i1 %32, ptr %17, ptr %.0.lcssa.i
  %34 = ptrtoint ptr %33 to i64
  %.neg21 = sub i64 %23, %34
  %.neg22 = trunc i64 %.neg21 to i32
  %35 = add i32 %20, %.neg22
  %36 = sext i32 %35 to i64
  %37 = getelementptr inbounds i8, ptr %33, i64 %36
  %38 = icmp sgt i32 %35, 0
  br i1 %38, label %.lr.ph.i24, label %Get_Start_Of_Data.exit

.lr.ph.i24:                                       ; preds = %Get_First_Whitespace_Character.exit, %41
  %.010.i25 = phi ptr [ %42, %41 ], [ %33, %Get_First_Whitespace_Character.exit ]
  %39 = load i8, ptr %.010.i25, align 1, !tbaa !54
  %40 = icmp eq i8 %39, 32
  br i1 %40, label %41, label %Get_Start_Of_Data.exit

41:                                               ; preds = %.lr.ph.i24
  %42 = getelementptr inbounds nuw i8, ptr %.010.i25, i64 1
  %43 = icmp ult ptr %42, %37
  br i1 %43, label %.lr.ph.i24, label %Get_Start_Of_Data.exit, !llvm.loop !56

Get_Start_Of_Data.exit:                           ; preds = %.lr.ph.i24, %41, %Get_First_Whitespace_Character.exit
  %.0.lcssa.i23 = phi ptr [ %33, %Get_First_Whitespace_Character.exit ], [ %.010.i25, %.lr.ph.i24 ], [ %42, %41 ]
  %44 = icmp eq ptr %.0.lcssa.i23, %37
  %45 = select i1 %44, ptr %33, ptr %.0.lcssa.i23
  %46 = load ptr, ptr %2, align 8, !tbaa !14
  %47 = getelementptr inbounds nuw i8, ptr %46, i64 104
  %48 = load ptr, ptr %47, align 8, !tbaa !52
  %49 = ptrtoint ptr %45 to i64
  %50 = ptrtoint ptr %48 to i64
  %51 = sub i64 %49, %50
  %52 = trunc i64 %51 to i32
  %53 = getelementptr inbounds nuw i8, ptr %46, i64 16
  %54 = load i32, ptr %53, align 8, !tbaa !26
  %55 = sdiv i32 %52, %54
  store i32 %55, ptr %9, align 8, !tbaa !17
  %56 = getelementptr inbounds nuw i8, ptr %46, i64 4
  %57 = load i16, ptr %56, align 4, !tbaa !27
  %58 = sext i16 %57 to i32
  %59 = mul nsw i32 %55, %58
  %60 = sub nsw i32 %52, %59
  store i32 %60, ptr %14, align 4, !tbaa !18
  %61 = getelementptr inbounds nuw i8, ptr %46, i64 12
  %62 = load i32, ptr %61, align 4, !tbaa !24
  %63 = icmp slt i32 %62, %55
  br i1 %63, label %64, label %Adjust_Cursor_Position.exit

64:                                               ; preds = %Get_Start_Of_Data.exit
  store i32 0, ptr %9, align 8, !tbaa !17
  br label %Adjust_Cursor_Position.exit

Adjust_Cursor_Position.exit:                      ; preds = %Get_Start_Of_Data.exit, %64
  ret i32 0
}